target datalayout = "e-m:e-p270:32:32-p271:32:32-p272:64:64-i64:64-i128:128-f80:128-n8:16:32:64-S128"
target triple = "x86_64-pc-linux-gnu"

%struct.SDL_VideoDevice = type { ptr, ptr, ptr, ptr, ptr, ptr, ptr, ptr, ptr, ptr, ptr, ptr, ptr, ptr, ptr, ptr, ptr, ptr, ptr, ptr, ptr, ptr, ptr, ptr, ptr, ptr, ptr, ptr, ptr, ptr, ptr, ptr, ptr, ptr, ptr, ptr, ptr, ptr, ptr, ptr, ptr, ptr, ptr, ptr, ptr, ptr, ptr, ptr, ptr, ptr, ptr, ptr, ptr, ptr, ptr, ptr, ptr, ptr, ptr, ptr, ptr, ptr, ptr, ptr, ptr, ptr, ptr, ptr, ptr, ptr, ptr, ptr, ptr, ptr, ptr, ptr, ptr, ptr, ptr, ptr, ptr, ptr, ptr, ptr, ptr, ptr, ptr, ptr, ptr, ptr, ptr, ptr, ptr, ptr, ptr, ptr, ptr, i64, i8, i8, i8, ptr, i32, ptr, %struct.SDL_Rect, ptr, ptr, i32, ptr, ptr, ptr, ptr, i64, ptr, i8, i32, i32, %struct.anon, ptr, ptr, ptr, ptr, ptr, ptr, %struct.SDL_AtomicInt, %struct.SDL_AtomicInt, i8, %struct.anon.0, ptr, ptr, ptr, ptr, ptr }
%struct.SDL_Rect = type { i32, i32, i32, i32 }
%struct.anon = type { i32, i32, i32, i32, i32, i32, i32, i32, i32, i32, i32, i32, i32, i32, i32, i32, i32, i32, i32, i32, i32, i32, i32, i32, i32, i32, i32, i32, i32, [256 x i8], ptr }
%struct.SDL_AtomicInt = type { i32 }
%struct.anon.0 = type { ptr, ptr, i32, [256 x i8], ptr }

; Function Attrs: nounwind uwtable
define hidden void @KMSDRM_Vulkan_UnloadLibrary(ptr noundef %0) #0 {
  %2 = alloca ptr, align 8
  store ptr %0, ptr %2, align 8
  %3 = load ptr, ptr %2, align 8
  %4 = getelementptr inbounds nuw %struct.SDL_VideoDevice, ptr %3, i32 0, i32 127
  %5 = getelementptr inbounds nuw %struct.anon.0, ptr %4, i32 0, i32 4
  %6 = load ptr, ptr %5, align 8
  %7 = icmp ne ptr %6, null
  br i1 %7, label %8, label %16

8:                                                ; preds = %1
  %9 = load ptr, ptr %2, align 8
  %10 = getelementptr inbounds nuw %struct.SDL_VideoDevice, ptr %9, i32 0, i32 127
  %11 = getelementptr inbounds nuw %struct.anon.0, ptr %10, i32 0, i32 4
  %12 = load ptr, ptr %11, align 8
  call void @SDL_UnloadObject_REAL(ptr noundef %12)
  %13 = load ptr, ptr %2, align 8
  %14 = getelementptr inbounds nuw %struct.SDL_VideoDevice, ptr %13, i32 0, i32 127
  %15 = getelementptr inbounds nuw %struct.anon.0, ptr %14, i32 0, i32 4
  store ptr null, ptr %15, align 8
  br label %16

16:                                               ; preds = %8, %1
  ret void
}